target datalayout = "e-m:e-p270:32:32-p271:32:32-p272:64:64-i64:64-i128:128-f80:128-n8:16:32:64-S128"
target triple = "x86_64-pc-linux-gnu"

%struct.RoseEngine = type { i8, i8, i8, i8, i8, i8, i8, i8, i8, i32, i32, i32, i32, i32, i32, i32, i32, i32, i32, i32, i32, i32, i32, i32, i32, i32, i32, i32, i32, i32, i32, i32, i32, i32, i32, i32, i32, i32, i32, i32, i32, i32, i32, i32, i32, i32, i32, i32, i32, i32, i32, i32, i32, i32, i32, i32, i32, i32, i32, i32, i32, i32, i32, i32, i32, i32, i64, i64, i32, i32, i32, i32, i32, i32, i32, %struct.RoseStateOffsets, %struct.RoseBoundaryReports, i32, i32, i32, i32, i32, i32, i32, i32, i32, i32, i32, i32, %struct.scatter_full_plan }
%struct.RoseStateOffsets = type { i32, i32, i32, i32, i32, i32, i32, i32, i32, i32, i32, i32, i32, i32, i32, i32, i32, i32, i32, i32, i32, i32, i32 }
%struct.RoseBoundaryReports = type { i32, i32, i32 }
%struct.scatter_full_plan = type { i32, i32, i32, i32, i32, i32, i32, i32 }
%struct.hs_stream = type { ptr, i64 }

@hs_stream_alloc = external global ptr, align 8

; Function Attrs: nounwind uwtable
define dso_local i32 @hs_copy_stream(ptr noundef %0, ptr noundef %1) #0 {
  %3 = alloca i32, align 4
  %4 = alloca ptr, align 8
  %5 = alloca ptr, align 8
  %6 = alloca ptr, align 8
  %7 = alloca i64, align 8
  %8 = alloca ptr, align 8
  %9 = alloca i32, align 4
  store ptr %0, ptr %4, align 8
  store ptr %1, ptr %5, align 8
  %10 = load ptr, ptr %4, align 8
  %11 = icmp ne ptr %10, null
  br i1 %11, label %13, label %12

12:                                               ; preds = %2
  store i32 -1, ptr %3, align 4
  br label %46

13:                                               ; preds = %2
  %14 = load ptr, ptr %4, align 8
  store ptr null, ptr %14, align 8
  %15 = load ptr, ptr %5, align 8
  %16 = icmp ne ptr %15, null
  br i1 %16, label %17, label %22

17:                                               ; preds = %13
  %18 = load ptr, ptr %5, align 8
  %19 = getelementptr inbounds nuw %struct.hs_stream, ptr %18, i32 0, i32 0
  %20 = load ptr, ptr %19, align 8
  %21 = icmp ne ptr %20, null
  br i1 %21, label %23, label %22

22:                                               ; preds = %17, %13
  store i32 -1, ptr %3, align 4
  br label %46

23:                                               ; preds = %17
  call void @llvm.lifetime.start.p0(i64 8, ptr %6) #13
  %24 = load ptr, ptr %5, align 8
  %25 = getelementptr inbounds nuw %struct.hs_stream, ptr %24, i32 0, i32 0
  %26 = load ptr, ptr %25, align 8
  store ptr %26, ptr %6, align 8
  call void @llvm.lifetime.start.p0(i64 8, ptr %7) #13
  %27 = load ptr, ptr %6, align 8
  %28 = getelementptr inbounds nuw %struct.RoseEngine, ptr %27, i32 0, i32 75
  %29 = getelementptr inbounds nuw %struct.RoseStateOffsets, ptr %28, i32 0, i32 22
  %30 = load i32, ptr %29, align 4
  %31 = zext i32 %30 to i64
  %32 = add i64 16, %31
  store i64 %32, ptr %7, align 8
  call void @llvm.lifetime.start.p0(i64 8, ptr %8) #13
  %33 = load ptr, ptr @hs_stream_alloc, align 8
  %34 = load i64, ptr %7, align 8
  %35 = call ptr %33(i64 noundef %34)
  store ptr %35, ptr %8, align 8
  %36 = load ptr, ptr %8, align 8
  %37 = icmp ne ptr %36, null
  br i1 %37, label %39, label %38

38:                                               ; preds = %23
  store i32 -2, ptr %3, align 4
  store i32 1, ptr %9, align 4
  br label %45

39:                                               ; preds = %23
  %40 = load ptr, ptr %8, align 8
  %41 = load ptr, ptr %5, align 8
  %42 = load i64, ptr %7, align 8
  call void @llvm.memcpy.p0.p0.i64(ptr align 8 %40, ptr align 8 %41, i64 %42, i1 false)
  %43 = load ptr, ptr %8, align 8
  %44 = load ptr, ptr %4, align 8
  store ptr %43, ptr %44, align 8
  store i32 0, ptr %3, align 4
  store i32 1, ptr %9, align 4
  br label %45

45:                                               ; preds = %39, %38
  call void @llvm.lifetime.end.p0(i64 8, ptr %8) #13
  call void @llvm.lifetime.end.p0(i64 8, ptr %7) #13
  call void @llvm.lifetime.end.p0(i64 8, ptr %6) #13
  br label %46

46:                                               ; preds = %45, %22, %12
  %47 = load i32, ptr %3, align 4
  ret i32 %47
}