; Function Attrs: nounwind uwtable
define dso_local range(i32 -2, 1) i32 @hs_copy_stream(ptr noundef writeonly %0, ptr noundef readonly %1) local_unnamed_addr #0 {
  %.not = icmp eq ptr %0, null
  br i1 %.not, label %14, label %3

3:                                                ; preds = %2
  store ptr null, ptr %0, align 8
  %.not17 = icmp eq ptr %1, null
  br i1 %.not17, label %14, label %4

4:                                                ; preds = %3
  %5 = load ptr, ptr %1, align 8
  %.not18 = icmp eq ptr %5, null
  br i1 %.not18, label %14, label %6

6:                                                ; preds = %4
  %7 = getelementptr inbounds nuw i8, ptr %5, i64 372
  %8 = load i32, ptr %7, align 4
  %9 = zext i32 %8 to i64
  %10 = add nuw nsw i64 %9, 16
  %11 = load ptr, ptr @hs_stream_alloc, align 8
  %12 = tail call ptr %11(i64 noundef %10) #13
  %.not19 = icmp eq ptr %12, null
  br i1 %.not19, label %14, label %13

13:                                               ; preds = %6
  tail call void @llvm.memcpy.p0.p0.i64(ptr noundef nonnull align 8 dereferenceable(1) %12, ptr noundef nonnull align 8 dereferenceable(1) %1, i64 %10, i1 false)
  store ptr %12, ptr %0, align 8
  br label %14

14:                                               ; preds = %13, %6, %3, %4, %2
  %.0 = phi i32 [ -1, %2 ], [ -1, %4 ], [ -1, %3 ], [ 0, %13 ], [ -2, %6 ]
  ret i32 %.0
}